target datalayout = "e-m:e-p270:32:32-p271:32:32-p272:64:64-i64:64-i128:128-f80:128-n8:16:32:64-S128"
target triple = "x86_64-pc-linux-gnu"

; Function Attrs: nounwind uwtable
define internal i32 @h_compareitems(ptr noundef %0, ptr noundef %1, i64 noundef %2) #0 {
  %4 = alloca i32, align 4
  %5 = alloca ptr, align 8
  %6 = alloca ptr, align 8
  %7 = alloca i64, align 8
  %8 = alloca ptr, align 8
  %9 = alloca ptr, align 8
  %10 = alloca i64, align 8
  %11 = alloca i32, align 4
  store ptr %0, ptr %5, align 8, !tbaa !8
  store ptr %1, ptr %6, align 8, !tbaa !8
  store i64 %2, ptr %7, align 8, !tbaa !21
  call void @llvm.lifetime.start.p0(i64 8, ptr %8) #8
  %12 = load ptr, ptr %5, align 8, !tbaa !8
  store ptr %12, ptr %8, align 8, !tbaa !78
  call void @llvm.lifetime.start.p0(i64 8, ptr %9) #8
  %13 = load ptr, ptr %6, align 8, !tbaa !8
  store ptr %13, ptr %9, align 8, !tbaa !78
  call void @llvm.lifetime.start.p0(i64 8, ptr %10) #8
  store i64 0, ptr %10, align 8, !tbaa !21
  br label %14

14:                                               ; preds = %45, %3
  %15 = load i64, ptr %10, align 8, !tbaa !21
  %16 = load i64, ptr %7, align 8, !tbaa !21
  %17 = icmp slt i64 %15, %16
  br i1 %17, label %19, label %18

18:                                               ; preds = %14
  store i32 2, ptr %11, align 4
  br label %48

19:                                               ; preds = %14
  %20 = load ptr, ptr %8, align 8, !tbaa !78
  %21 = load i64, ptr %10, align 8, !tbaa !21
  %22 = getelementptr i16, ptr %20, i64 %21
  %23 = load i16, ptr %22, align 2, !tbaa !37
  %24 = sext i16 %23 to i32
  %25 = load ptr, ptr %9, align 8, !tbaa !78
  %26 = load i64, ptr %10, align 8, !tbaa !21
  %27 = getelementptr i16, ptr %25, i64 %26
  %28 = load i16, ptr %27, align 2, !tbaa !37
  %29 = sext i16 %28 to i32
  %30 = icmp ne i32 %24, %29
  br i1 %30, label %31, label %44

31:                                               ; preds = %19
  %32 = load ptr, ptr %8, align 8, !tbaa !78
  %33 = load i64, ptr %10, align 8, !tbaa !21
  %34 = getelementptr i16, ptr %32, i64 %33
  %35 = load i16, ptr %34, align 2, !tbaa !37
  %36 = sext i16 %35 to i32
  %37 = load ptr, ptr %9, align 8, !tbaa !78
  %38 = load i64, ptr %10, align 8, !tbaa !21
  %39 = getelementptr i16, ptr %37, i64 %38
  %40 = load i16, ptr %39, align 2, !tbaa !37
  %41 = sext i16 %40 to i32
  %42 = icmp slt i32 %36, %41
  %43 = select i1 %42, i32 -1, i32 1
  store i32 %43, ptr %4, align 4
  store i32 1, ptr %11, align 4
  br label %48

44:                                               ; preds = %19
  br label %45

45:                                               ; preds = %44
  %46 = load i64, ptr %10, align 8, !tbaa !21
  %47 = add i64 %46, 1
  store i64 %47, ptr %10, align 8, !tbaa !21
  br label %14, !llvm.loop !80

48:                                               ; preds = %31, %18
  call void @llvm.lifetime.end.p0(i64 8, ptr %10) #8
  %49 = load i32, ptr %11, align 4
  switch i32 %49, label %51 [
    i32 2, label %50
  ]

50:                                               ; preds = %48
  store i32 0, ptr %4, align 4
  store i32 1, ptr %11, align 4
  br label %51

51:                                               ; preds = %50, %48
  call void @llvm.lifetime.end.p0(i64 8, ptr %9) #8
  call void @llvm.lifetime.end.p0(i64 8, ptr %8) #8
  %52 = load i32, ptr %4, align 4
  ret i32 %52
}